; Function Attrs: mustprogress nounwind willreturn uwtable
define void @Gia_ManSupStop(ptr noundef captures(none) %0) local_unnamed_addr #4 {
  %2 = getelementptr inbounds nuw i8, ptr %0, i64 56
  %3 = load ptr, ptr %2, align 8, !tbaa !33
  %.not = icmp eq ptr %3, null
  br i1 %.not, label %5, label %4

4:                                                ; preds = %1
  tail call void @free(ptr noundef nonnull %3) #14
  store ptr null, ptr %2, align 8, !tbaa !33
  br label %5

5:                                                ; preds = %1, %4
  %6 = getelementptr inbounds nuw i8, ptr %0, i64 64
  %7 = load ptr, ptr %6, align 8, !tbaa !34
  %.not14 = icmp eq ptr %7, null
  br i1 %.not14, label %9, label %8

8:                                                ; preds = %5
  tail call void @free(ptr noundef nonnull %7) #14
  store ptr null, ptr %6, align 8, !tbaa !34
  br label %9

9:                                                ; preds = %5, %8
  %10 = getelementptr inbounds nuw i8, ptr %0, i64 40
  %11 = load ptr, ptr %10, align 8, !tbaa !35
  %12 = icmp eq ptr %11, null
  br i1 %12, label %Vec_IntFreeP.exit, label %13

13:                                               ; preds = %9
  %14 = getelementptr inbounds nuw i8, ptr %11, i64 8
  %15 = load ptr, ptr %14, align 8, !tbaa !30
  %.not.i = icmp eq ptr %15, null
  br i1 %.not.i, label %18, label %.thread.i

.thread.i:                                        ; preds = %13
  tail call void @free(ptr noundef nonnull %15) #14
  %16 = load ptr, ptr %10, align 8, !tbaa !35
  %17 = getelementptr inbounds nuw i8, ptr %16, i64 8
  store ptr null, ptr %17, align 8, !tbaa !30
  br label %18

18:                                               ; preds = %.thread.i, %13
  %19 = phi ptr [ %16, %.thread.i ], [ %11, %13 ]
  tail call void @free(ptr noundef nonnull %19) #14
  store ptr null, ptr %10, align 8, !tbaa !35
  br label %Vec_IntFreeP.exit

Vec_IntFreeP.exit:                                ; preds = %9, %18
  %20 = getelementptr inbounds nuw i8, ptr %0, i64 48
  %21 = load ptr, ptr %20, align 8, !tbaa !35
  %22 = icmp eq ptr %21, null
  br i1 %22, label %Vec_IntFreeP.exit18, label %23

23:                                               ; preds = %Vec_IntFreeP.exit
  %24 = getelementptr inbounds nuw i8, ptr %21, i64 8
  %25 = load ptr, ptr %24, align 8, !tbaa !30
  %.not.i16 = icmp eq ptr %25, null
  br i1 %.not.i16, label %28, label %.thread.i17

.thread.i17:                                      ; preds = %23
  tail call void @free(ptr noundef nonnull %25) #14
  %26 = load ptr, ptr %20, align 8, !tbaa !35
  %27 = getelementptr inbounds nuw i8, ptr %26, i64 8
  store ptr null, ptr %27, align 8, !tbaa !30
  br label %28

28:                                               ; preds = %.thread.i17, %23
  %29 = phi ptr [ %26, %.thread.i17 ], [ %21, %23 ]
  tail call void @free(ptr noundef nonnull %29) #14
  store ptr null, ptr %20, align 8, !tbaa !35
  br label %Vec_IntFreeP.exit18

Vec_IntFreeP.exit18:                              ; preds = %Vec_IntFreeP.exit, %28
  %30 = getelementptr inbounds nuw i8, ptr %0, i64 8
  %31 = load ptr, ptr %30, align 8, !tbaa !36
  %32 = icmp eq ptr %31, null
  br i1 %32, label %Vec_PtrFreeP.exit, label %33

33:                                               ; preds = %Vec_IntFreeP.exit18
  %34 = getelementptr inbounds nuw i8, ptr %31, i64 8
  %35 = load ptr, ptr %34, align 8, !tbaa !20
  %.not.i19 = icmp eq ptr %35, null
  br i1 %.not.i19, label %38, label %.thread.i20

.thread.i20:                                      ; preds = %33
  tail call void @free(ptr noundef nonnull %35) #14
  %36 = load ptr, ptr %30, align 8, !tbaa !36
  %37 = getelementptr inbounds nuw i8, ptr %36, i64 8
  store ptr null, ptr %37, align 8, !tbaa !20
  br label %38

38:                                               ; preds = %.thread.i20, %33
  %39 = phi ptr [ %36, %.thread.i20 ], [ %31, %33 ]
  tail call void @free(ptr noundef nonnull %39) #14
  store ptr null, ptr %30, align 8, !tbaa !36
  br label %Vec_PtrFreeP.exit

Vec_PtrFreeP.exit:                                ; preds = %Vec_IntFreeP.exit18, %38
  %40 = getelementptr inbounds nuw i8, ptr %0, i64 16
  %41 = load ptr, ptr %40, align 8, !tbaa !36
  %42 = icmp eq ptr %41, null
  br i1 %42, label %50, label %43

43:                                               ; preds = %Vec_PtrFreeP.exit
  %44 = getelementptr inbounds nuw i8, ptr %41, i64 8
  %45 = load ptr, ptr %44, align 8, !tbaa !20
  %.not.i21 = icmp eq ptr %45, null
  br i1 %.not.i21, label %48, label %.thread.i22

.thread.i22:                                      ; preds = %43
  tail call void @free(ptr noundef nonnull %45) #14
  %46 = load ptr, ptr %40, align 8, !tbaa !36
  %47 = getelementptr inbounds nuw i8, ptr %46, i64 8
  store ptr null, ptr %47, align 8, !tbaa !20
  br label %48

48:                                               ; preds = %.thread.i22, %43
  %49 = phi ptr [ %46, %.thread.i22 ], [ %41, %43 ]
  tail call void @free(ptr noundef nonnull %49) #14
  br label %50

50:                                               ; preds = %Vec_PtrFreeP.exit, %48
  tail call void @free(ptr noundef nonnull %0) #14
  ret void
}